target datalayout = "e-m:e-p270:32:32-p271:32:32-p272:64:64-i64:64-i128:128-f80:128-n8:16:32:64-S128"
target triple = "x86_64-pc-linux-gnu"

%struct.EState = type { i32, i32, ptr, ptr, ptr, i32, ptr, ptr, ptr, ptr, ptr, ptr, ptr, ptr, ptr, ptr, i32, ptr, ptr, ptr, ptr, ptr, ptr, ptr, ptr, ptr, ptr, i64, i64, i32, i32, i8, ptr, ptr, ptr, ptr, ptr, i8, i32, i32, ptr, i32, ptr, ptr, ptr, ptr }
%struct.ParallelExecutorInfo = type { ptr, ptr, ptr, ptr, ptr, ptr, ptr, i64, i8, ptr, ptr }
%struct.PlanState = type { i32, ptr, ptr, ptr, ptr, ptr, ptr, ptr, ptr, ptr, ptr, ptr, ptr, ptr, ptr, ptr, ptr, ptr, i8, ptr, ptr, ptr, ptr, ptr, i8, i8, i8, i8, i8, i8, i8, i8 }
%struct.instr_time = type { i64 }
%struct.SharedJitInstrumentation = type { i32, [0 x %struct.JitInstrumentation] }
%struct.JitInstrumentation = type { i64, %struct.instr_time, %struct.instr_time, %struct.instr_time, %struct.instr_time, %struct.instr_time }

; Function Attrs: nounwind uwtable
define internal void @ExecParallelRetrieveJitInstrumentation(ptr noundef %0, ptr noundef %1) #0 {
  %3 = alloca ptr, align 8
  %4 = alloca ptr, align 8
  %5 = alloca ptr, align 8
  %6 = alloca i32, align 4
  %7 = alloca i32, align 4
  store ptr %0, ptr %3, align 8
  store ptr %1, ptr %4, align 8
  call void @llvm.lifetime.start.p0(i64 8, ptr %5) #8
  call void @llvm.lifetime.start.p0(i64 4, ptr %6) #8
  call void @llvm.lifetime.start.p0(i64 4, ptr %7) #8
  %8 = load ptr, ptr %3, align 8
  %9 = getelementptr inbounds nuw %struct.PlanState, ptr %8, i32 0, i32 2
  %10 = load ptr, ptr %9, align 8
  %11 = getelementptr inbounds nuw %struct.EState, ptr %10, i32 0, i32 43
  %12 = load ptr, ptr %11, align 8
  %13 = icmp ne ptr %12, null
  br i1 %13, label %25, label %14

14:                                               ; preds = %2
  %15 = load ptr, ptr %3, align 8
  %16 = getelementptr inbounds nuw %struct.PlanState, ptr %15, i32 0, i32 2
  %17 = load ptr, ptr %16, align 8
  %18 = getelementptr inbounds nuw %struct.EState, ptr %17, i32 0, i32 25
  %19 = load ptr, ptr %18, align 8
  %20 = call ptr @MemoryContextAllocZero(ptr noundef %19, i64 noundef 48)
  %21 = load ptr, ptr %3, align 8
  %22 = getelementptr inbounds nuw %struct.PlanState, ptr %21, i32 0, i32 2
  %23 = load ptr, ptr %22, align 8
  %24 = getelementptr inbounds nuw %struct.EState, ptr %23, i32 0, i32 43
  store ptr %20, ptr %24, align 8
  br label %25

25:                                               ; preds = %14, %2
  %26 = load ptr, ptr %3, align 8
  %27 = getelementptr inbounds nuw %struct.PlanState, ptr %26, i32 0, i32 2
  %28 = load ptr, ptr %27, align 8
  %29 = getelementptr inbounds nuw %struct.EState, ptr %28, i32 0, i32 43
  %30 = load ptr, ptr %29, align 8
  store ptr %30, ptr %5, align 8
  store i32 0, ptr %7, align 4
  br label %31

31:                                               ; preds = %44, %25
  %32 = load i32, ptr %7, align 4
  %33 = load ptr, ptr %4, align 8
  %34 = getelementptr inbounds nuw %struct.SharedJitInstrumentation, ptr %33, i32 0, i32 0
  %35 = load i32, ptr %34, align 8
  %36 = icmp slt i32 %32, %35
  br i1 %36, label %37, label %47

37:                                               ; preds = %31
  %38 = load ptr, ptr %5, align 8
  %39 = load ptr, ptr %4, align 8
  %40 = getelementptr inbounds nuw %struct.SharedJitInstrumentation, ptr %39, i32 0, i32 1
  %41 = load i32, ptr %7, align 4
  %42 = sext i32 %41 to i64
  %43 = getelementptr inbounds [0 x %struct.JitInstrumentation], ptr %40, i64 0, i64 %42
  call void @InstrJitAgg(ptr noundef %38, ptr noundef %43)
  br label %44

44:                                               ; preds = %37
  %45 = load i32, ptr %7, align 4
  %46 = add i32 %45, 1
  store i32 %46, ptr %7, align 4
  br label %31, !llvm.loop !18

47:                                               ; preds = %31
  %48 = load ptr, ptr %4, align 8
  %49 = getelementptr inbounds nuw %struct.SharedJitInstrumentation, ptr %48, i32 0, i32 0
  %50 = load i32, ptr %49, align 8
  %51 = sext i32 %50 to i64
  %52 = call i64 @mul_size(i64 noundef %51, i64 noundef 48)
  %53 = add i64 8, %52
  %54 = trunc i64 %53 to i32
  store i32 %54, ptr %6, align 4
  %55 = load ptr, ptr %3, align 8
  %56 = getelementptr inbounds nuw %struct.PlanState, ptr %55, i32 0, i32 2
  %57 = load ptr, ptr %56, align 8
  %58 = getelementptr inbounds nuw %struct.EState, ptr %57, i32 0, i32 25
  %59 = load ptr, ptr %58, align 8
  %60 = load i32, ptr %6, align 4
  %61 = sext i32 %60 to i64
  %62 = call ptr @MemoryContextAlloc(ptr noundef %59, i64 noundef %61)
  %63 = load ptr, ptr %3, align 8
  %64 = getelementptr inbounds nuw %struct.PlanState, ptr %63, i32 0, i32 7
  store ptr %62, ptr %64, align 8
  %65 = load ptr, ptr %3, align 8
  %66 = getelementptr inbounds nuw %struct.PlanState, ptr %65, i32 0, i32 7
  %67 = load ptr, ptr %66, align 8
  %68 = load ptr, ptr %4, align 8
  %69 = load i32, ptr %6, align 4
  %70 = sext i32 %69 to i64
  call void @llvm.memcpy.p0.p0.i64(ptr align 8 %67, ptr align 8 %68, i64 %70, i1 false)
  call void @llvm.lifetime.end.p0(i64 4, ptr %7) #8
  call void @llvm.lifetime.end.p0(i64 4, ptr %6) #8
  call void @llvm.lifetime.end.p0(i64 8, ptr %5) #8
  ret void
}

; Function Attrs: nounwind uwtable
define dso_local void @ExecParallelCleanup(ptr noundef %0) #0 {
  %2 = alloca ptr, align 8
  store ptr %0, ptr %2, align 8
  %3 = load ptr, ptr %2, align 8
  %4 = getelementptr inbounds nuw %struct.ParallelExecutorInfo, ptr %3, i32 0, i32 4
  %5 = load ptr, ptr %4, align 8
  %6 = icmp ne ptr %5, null
  br i1 %6, label %7, label %15

7:                                                ; preds = %1
  %8 = load ptr, ptr %2, align 8
  %9 = getelementptr inbounds nuw %struct.ParallelExecutorInfo, ptr %8, i32 0, i32 0
  %10 = load ptr, ptr %9, align 8
  %11 = load ptr, ptr %2, align 8
  %12 = getelementptr inbounds nuw %struct.ParallelExecutorInfo, ptr %11, i32 0, i32 4
  %13 = load ptr, ptr %12, align 8
  %14 = call zeroext i1 @ExecParallelRetrieveInstrumentation(ptr noundef %10, ptr noundef %13)
  br label %15

15:                                               ; preds = %7, %1
  %16 = load ptr, ptr %2, align 8
  %17 = getelementptr inbounds nuw %struct.ParallelExecutorInfo, ptr %16, i32 0, i32 5
  %18 = load ptr, ptr %17, align 8
  %19 = icmp ne ptr %18, null
  br i1 %19, label %20, label %27

20:                                               ; preds = %15
  %21 = load ptr, ptr %2, align 8
  %22 = getelementptr inbounds nuw %struct.ParallelExecutorInfo, ptr %21, i32 0, i32 0
  %23 = load ptr, ptr %22, align 8
  %24 = load ptr, ptr %2, align 8
  %25 = getelementptr inbounds nuw %struct.ParallelExecutorInfo, ptr %24, i32 0, i32 5
  %26 = load ptr, ptr %25, align 8
  call void @ExecParallelRetrieveJitInstrumentation(ptr noundef %23, ptr noundef %26)
  br label %27

27:                                               ; preds = %20, %15
  %28 = load ptr, ptr %2, align 8
  %29 = getelementptr inbounds nuw %struct.ParallelExecutorInfo, ptr %28, i32 0, i32 7
  %30 = load i64, ptr %29, align 8
  %31 = icmp ne i64 %30, 0
  br i1 %31, label %32, label %41

32:                                               ; preds = %27
  %33 = load ptr, ptr %2, align 8
  %34 = getelementptr inbounds nuw %struct.ParallelExecutorInfo, ptr %33, i32 0, i32 6
  %35 = load ptr, ptr %34, align 8
  %36 = load ptr, ptr %2, align 8
  %37 = getelementptr inbounds nuw %struct.ParallelExecutorInfo, ptr %36, i32 0, i32 7
  %38 = load i64, ptr %37, align 8
  call void @dsa_free(ptr noundef %35, i64 noundef %38)
  %39 = load ptr, ptr %2, align 8
  %40 = getelementptr inbounds nuw %struct.ParallelExecutorInfo, ptr %39, i32 0, i32 7
  store i64 0, ptr %40, align 8
  br label %41

41:                                               ; preds = %32, %27
  %42 = load ptr, ptr %2, align 8
  %43 = getelementptr inbounds nuw %struct.ParallelExecutorInfo, ptr %42, i32 0, i32 6
  %44 = load ptr, ptr %43, align 8
  %45 = icmp ne ptr %44, null
  br i1 %45, label %46, label %52

46:                                               ; preds = %41
  %47 = load ptr, ptr %2, align 8
  %48 = getelementptr inbounds nuw %struct.ParallelExecutorInfo, ptr %47, i32 0, i32 6
  %49 = load ptr, ptr %48, align 8
  call void @dsa_detach(ptr noundef %49)
  %50 = load ptr, ptr %2, align 8
  %51 = getelementptr inbounds nuw %struct.ParallelExecutorInfo, ptr %50, i32 0, i32 6
  store ptr null, ptr %51, align 8
  br label %52

52:                                               ; preds = %46, %41
  %53 = load ptr, ptr %2, align 8
  %54 = getelementptr inbounds nuw %struct.ParallelExecutorInfo, ptr %53, i32 0, i32 1
  %55 = load ptr, ptr %54, align 8
  %56 = icmp ne ptr %55, null
  br i1 %56, label %57, label %63

57:                                               ; preds = %52
  %58 = load ptr, ptr %2, align 8
  %59 = getelementptr inbounds nuw %struct.ParallelExecutorInfo, ptr %58, i32 0, i32 1
  %60 = load ptr, ptr %59, align 8
  call void @DestroyParallelContext(ptr noundef %60)
  %61 = load ptr, ptr %2, align 8
  %62 = getelementptr inbounds nuw %struct.ParallelExecutorInfo, ptr %61, i32 0, i32 1
  store ptr null, ptr %62, align 8
  br label %63

63:                                               ; preds = %57, %52
  %64 = load ptr, ptr %2, align 8
  call void @pfree(ptr noundef %64)
  ret void
}