; Function Attrs: nounwind uwtable
define dso_local void @ExecParallelCleanup(ptr noundef %0) local_unnamed_addr #0 {
  %2 = getelementptr inbounds nuw i8, ptr %0, i64 32
  %3 = load ptr, ptr %2, align 8
  %.not = icmp eq ptr %3, null
  br i1 %.not, label %7, label %4

4:                                                ; preds = %1
  %5 = load ptr, ptr %0, align 8
  %6 = tail call zeroext i1 @ExecParallelRetrieveInstrumentation(ptr noundef %5, ptr noundef nonnull %3)
  br label %7

7:                                                ; preds = %4, %1
  %8 = getelementptr inbounds nuw i8, ptr %0, i64 40
  %9 = load ptr, ptr %8, align 8
  %.not21 = icmp eq ptr %9, null
  br i1 %.not21, label %40, label %10

10:                                               ; preds = %7
  %11 = load ptr, ptr %0, align 8
  %12 = getelementptr inbounds nuw i8, ptr %11, i64 16
  %13 = load ptr, ptr %12, align 8
  %14 = getelementptr inbounds nuw i8, ptr %13, i64 320
  %15 = load ptr, ptr %14, align 8
  %.not.i = icmp eq ptr %15, null
  br i1 %.not.i, label %16, label %22

16:                                               ; preds = %10
  %17 = getelementptr inbounds nuw i8, ptr %13, i64 192
  %18 = load ptr, ptr %17, align 8
  %19 = tail call ptr @MemoryContextAllocZero(ptr noundef %18, i64 noundef 48) #9
  %20 = load ptr, ptr %12, align 8
  %21 = getelementptr inbounds nuw i8, ptr %20, i64 320
  store ptr %19, ptr %21, align 8
  %.pre.i = load ptr, ptr %12, align 8
  %.phi.trans.insert.i = getelementptr inbounds nuw i8, ptr %.pre.i, i64 320
  %.pre20.i = load ptr, ptr %.phi.trans.insert.i, align 8
  br label %22

22:                                               ; preds = %16, %10
  %23 = phi ptr [ %.pre20.i, %16 ], [ %15, %10 ]
  %24 = load i32, ptr %9, align 8
  %25 = icmp sgt i32 %24, 0
  br i1 %25, label %.lr.ph.i, label %.._crit_edge_crit_edge.i

.._crit_edge_crit_edge.i:                         ; preds = %22
  %.pre21.i = sext i32 %24 to i64
  br label %ExecParallelRetrieveJitInstrumentation.exit

.lr.ph.i:                                         ; preds = %22
  %26 = getelementptr inbounds nuw i8, ptr %9, i64 8
  br label %27

27:                                               ; preds = %27, %.lr.ph.i
  %indvars.iv.i = phi i64 [ 0, %.lr.ph.i ], [ %indvars.iv.next.i, %27 ]
  %28 = getelementptr inbounds nuw [0 x %struct.JitInstrumentation], ptr %26, i64 0, i64 %indvars.iv.i
  tail call void @InstrJitAgg(ptr noundef %23, ptr noundef nonnull %28) #9
  %indvars.iv.next.i = add nuw nsw i64 %indvars.iv.i, 1
  %29 = load i32, ptr %9, align 8
  %30 = sext i32 %29 to i64
  %31 = icmp slt i64 %indvars.iv.next.i, %30
  br i1 %31, label %27, label %ExecParallelRetrieveJitInstrumentation.exit, !llvm.loop !15

ExecParallelRetrieveJitInstrumentation.exit:      ; preds = %27, %.._crit_edge_crit_edge.i
  %.pre-phi.i = phi i64 [ %.pre21.i, %.._crit_edge_crit_edge.i ], [ %30, %27 ]
  %32 = tail call i64 @mul_size(i64 noundef %.pre-phi.i, i64 noundef 48) #9
  %33 = load ptr, ptr %12, align 8
  %34 = getelementptr inbounds nuw i8, ptr %33, i64 192
  %35 = load ptr, ptr %34, align 8
  %36 = shl i64 %32, 32
  %sext.i = add i64 %36, 34359738368
  %37 = ashr exact i64 %sext.i, 32
  %38 = tail call ptr @MemoryContextAlloc(ptr noundef %35, i64 noundef %37) #9
  %39 = getelementptr inbounds nuw i8, ptr %11, i64 56
  store ptr %38, ptr %39, align 8
  tail call void @llvm.memcpy.p0.p0.i64(ptr align 8 %38, ptr nonnull align 8 %9, i64 %37, i1 false)
  br label %40

40:                                               ; preds = %ExecParallelRetrieveJitInstrumentation.exit, %7
  %41 = getelementptr inbounds nuw i8, ptr %0, i64 56
  %42 = load i64, ptr %41, align 8
  %.not22 = icmp eq i64 %42, 0
  br i1 %.not22, label %46, label %43

43:                                               ; preds = %40
  %44 = getelementptr inbounds nuw i8, ptr %0, i64 48
  %45 = load ptr, ptr %44, align 8
  tail call void @dsa_free(ptr noundef %45, i64 noundef %42) #9
  store i64 0, ptr %41, align 8
  br label %46

46:                                               ; preds = %43, %40
  %47 = getelementptr inbounds nuw i8, ptr %0, i64 48
  %48 = load ptr, ptr %47, align 8
  %.not23 = icmp eq ptr %48, null
  br i1 %.not23, label %50, label %49

49:                                               ; preds = %46
  tail call void @dsa_detach(ptr noundef nonnull %48) #9
  store ptr null, ptr %47, align 8
  br label %50

50:                                               ; preds = %49, %46
  %51 = getelementptr inbounds nuw i8, ptr %0, i64 8
  %52 = load ptr, ptr %51, align 8
  %.not24 = icmp eq ptr %52, null
  br i1 %.not24, label %54, label %53

53:                                               ; preds = %50
  tail call void @DestroyParallelContext(ptr noundef nonnull %52) #9
  store ptr null, ptr %51, align 8
  br label %54

54:                                               ; preds = %53, %50
  tail call void @pfree(ptr noundef nonnull %0) #9
  ret void
}